; Function Attrs: nounwind sspstrong uwtable
define internal i64 @rb_io_buffer_initialize_copy(i64 noundef %0, i64 noundef %1) #0 {
  %3 = tail call ptr @rb_check_typeddata(i64 noundef %0, ptr noundef nonnull @rb_io_buffer_type) #25
  %4 = tail call ptr @rb_check_typeddata(i64 noundef %1, ptr noundef nonnull @rb_io_buffer_type) #25
  %5 = getelementptr inbounds nuw i8, ptr %4, i64 24
  %6 = load i64, ptr %5, align 8, !tbaa !7
  %.not.i.i.i = icmp eq i64 %6, 4
  br i1 %.not.i.i.i, label %io_buffer_validate.exit.thread.i.i, label %io_buffer_validate.exit.i.i

io_buffer_validate.exit.i.i:                      ; preds = %2
  %7 = load ptr, ptr %4, align 8, !tbaa !14
  %8 = getelementptr inbounds nuw i8, ptr %4, i64 8
  %9 = load i64, ptr %8, align 8, !tbaa !16
  %10 = tail call fastcc i32 @io_buffer_validate_slice(i64 noundef %6, ptr noundef %7, i64 noundef %9)
  %.not.i.i = icmp eq i32 %10, 0
  br i1 %.not.i.i, label %11, label %io_buffer_validate.exit.thread.i.i

11:                                               ; preds = %io_buffer_validate.exit.i.i
  %12 = load i64, ptr @rb_eIOBufferInvalidatedError, align 8, !tbaa !22
  tail call void (i64, ptr, ...) @rb_raise(i64 noundef %12, ptr noundef nonnull @.str.119) #26
  unreachable

io_buffer_validate.exit.thread.i.i:               ; preds = %io_buffer_validate.exit.i.i, %2
  %13 = load ptr, ptr %4, align 8, !tbaa !14
  %.not8.i.i = icmp eq ptr %13, null
  br i1 %.not8.i.i, label %rb_io_buffer_get_bytes_for_reading.exit, label %14

14:                                               ; preds = %io_buffer_validate.exit.thread.i.i
  %15 = getelementptr inbounds nuw i8, ptr %4, i64 8
  %16 = load i64, ptr %15, align 8, !tbaa !16
  br label %rb_io_buffer_get_bytes_for_reading.exit

rb_io_buffer_get_bytes_for_reading.exit:          ; preds = %io_buffer_validate.exit.thread.i.i, %14
  %storemerge.i.i = phi i64 [ %16, %14 ], [ 0, %io_buffer_validate.exit.thread.i.i ]
  %17 = load i64, ptr @RUBY_IO_BUFFER_PAGE_SIZE, align 8, !tbaa !22
  %.not.i = icmp ult i64 %storemerge.i.i, %17
  %..i = select i1 %.not.i, i32 2, i32 4
  tail call fastcc void @io_buffer_initialize(i64 noundef %0, ptr noundef %3, ptr noundef null, i64 noundef %storemerge.i.i, i32 noundef %..i, i64 noundef 4)
  %18 = tail call fastcc i64 @io_buffer_copy_from(ptr noundef %3, ptr noundef %13, i64 noundef %storemerge.i.i, i32 noundef 0, ptr noundef null)
  ret i64 %18
}